; Function Attrs: nofree norecurse nosync nounwind memory(none) uwtable
define dso_local range(i64 0, 4294967296) i64 @cm_zlib_crc32_combine_gen64(i64 noundef %0) local_unnamed_addr #2 {
  %.not10.i = icmp eq i64 %0, 0
  br i1 %.not10.i, label %x2nmodp.exit, label %.lr.ph.i

.lr.ph.i:                                         ; preds = %1, %multmodp.exit.i
  %.013.i = phi i32 [ %.1.i, %multmodp.exit.i ], [ -2147483648, %1 ]
  %.0712.i = phi i32 [ %22, %multmodp.exit.i ], [ 3, %1 ]
  %.0811.i = phi i64 [ %21, %multmodp.exit.i ], [ %0, %1 ]
  %2 = and i64 %.0811.i, 1
  %.not9.i = icmp eq i64 %2, 0
  br i1 %.not9.i, label %multmodp.exit.i, label %3

3:                                                ; preds = %.lr.ph.i
  %4 = and i32 %.0712.i, 31
  %5 = zext nneg i32 %4 to i64
  %6 = getelementptr inbounds nuw [32 x i32], ptr @x2n_table, i64 0, i64 %5
  %7 = load i32, ptr %6, align 4, !tbaa !7
  br label %8

8:                                                ; preds = %15, %3
  %.012.i.i = phi i32 [ %.013.i, %3 ], [ %20, %15 ]
  %.011.i.i = phi i32 [ -2147483648, %3 ], [ %16, %15 ]
  %.0.i.i = phi i32 [ 0, %3 ], [ %.1.i.i, %15 ]
  %9 = and i32 %.011.i.i, %7
  %.not.i.i = icmp eq i32 %9, 0
  br i1 %.not.i.i, label %15, label %10

10:                                               ; preds = %8
  %11 = xor i32 %.0.i.i, %.012.i.i
  %12 = add i32 %.011.i.i, -1
  %13 = and i32 %12, %7
  %14 = icmp eq i32 %13, 0
  br i1 %14, label %multmodp.exit.i, label %15

15:                                               ; preds = %10, %8
  %.1.i.i = phi i32 [ %11, %10 ], [ %.0.i.i, %8 ]
  %16 = lshr i32 %.011.i.i, 1
  %17 = and i32 %.012.i.i, 1
  %.not13.i.i = icmp eq i32 %17, 0
  %18 = lshr i32 %.012.i.i, 1
  %19 = xor i32 %18, -306674912
  %20 = select i1 %.not13.i.i, i32 %18, i32 %19
  br label %8

multmodp.exit.i:                                  ; preds = %10, %.lr.ph.i
  %.1.i = phi i32 [ %.013.i, %.lr.ph.i ], [ %11, %10 ]
  %21 = ashr i64 %.0811.i, 1
  %22 = add i32 %.0712.i, 1
  %.not.i = icmp ult i64 %.0811.i, 2
  br i1 %.not.i, label %x2nmodp.exit.loopexit, label %.lr.ph.i, !llvm.loop !18

x2nmodp.exit.loopexit:                            ; preds = %multmodp.exit.i
  %23 = zext i32 %.1.i to i64
  br label %x2nmodp.exit

x2nmodp.exit:                                     ; preds = %x2nmodp.exit.loopexit, %1
  %.0.lcssa.i = phi i64 [ 2147483648, %1 ], [ %23, %x2nmodp.exit.loopexit ]
  ret i64 %.0.lcssa.i
}